; Function Attrs: null_pointer_is_valid sspstrong uwtable
define noundef ptr @fvalue_unary_minus(ptr noundef %0, ptr noundef %1) local_unnamed_addr #0 {
  %3 = load ptr, ptr %0, align 8
  %4 = load i32, ptr %3, align 8
  %5 = tail call noalias dereferenceable_or_null(40) ptr @g_slice_alloc(i64 noundef 40) #10
  %6 = zext i32 %4 to i64
  %7 = getelementptr [48 x ptr], ptr @type_list, i64 0, i64 %6
  %8 = load ptr, ptr %7, align 8
  store ptr %8, ptr %5, align 8
  %9 = getelementptr inbounds nuw i8, ptr %8, i64 8
  %10 = load ptr, ptr %9, align 8
  %.not.i = icmp eq ptr %10, null
  br i1 %.not.i, label %fvalue_new.exit, label %11

11:                                               ; preds = %2
  tail call void %10(ptr noundef %5)
  br label %fvalue_new.exit

fvalue_new.exit:                                  ; preds = %2, %11
  %12 = load ptr, ptr %0, align 8
  %13 = getelementptr inbounds nuw i8, ptr %12, i64 200
  %14 = load ptr, ptr %13, align 8
  %15 = tail call i32 %14(ptr noundef %5, ptr noundef %0, ptr noundef %1)
  %.not = icmp eq i32 %15, 0
  br i1 %.not, label %21, label %16

16:                                               ; preds = %fvalue_new.exit
  %17 = load ptr, ptr %5, align 8
  %18 = getelementptr inbounds nuw i8, ptr %17, i64 24
  %19 = load ptr, ptr %18, align 8
  %.not.i.i = icmp eq ptr %19, null
  br i1 %.not.i.i, label %fvalue_free.exit, label %20

20:                                               ; preds = %16
  tail call void %19(ptr noundef %5)
  br label %fvalue_free.exit

fvalue_free.exit:                                 ; preds = %16, %20
  tail call void @g_slice_free1(i64 noundef 40, ptr noundef %5)
  br label %21

21:                                               ; preds = %fvalue_new.exit, %fvalue_free.exit
  %.0 = phi ptr [ null, %fvalue_free.exit ], [ %5, %fvalue_new.exit ]
  ret ptr %.0
}